target datalayout = "e-m:e-p270:32:32-p271:32:32-p272:64:64-i64:64-i128:128-f80:128-n8:16:32:64-S128"
target triple = "x86_64-unknown-linux-gnu"

%"struct.node::AssertionInfo" = type { ptr, ptr, ptr }

@_ZZN4node6AtExitEPNS_11EnvironmentEPFvPvES2_E4args = internal constant %"struct.node::AssertionInfo" { ptr @.str, ptr @.str.1, ptr @.str.2 }, align 8

; Function Attrs: mustprogress nounwind uwtable
define dso_local void @_ZN4node6AtExitEPNS_11EnvironmentEPFvPvES2_(ptr noundef %env, ptr noundef %cb, ptr noundef %arg) #4 {
entry:
  %env.addr = alloca ptr, align 8
  %cb.addr = alloca ptr, align 8
  %arg.addr = alloca ptr, align 8
  store ptr %env, ptr %env.addr, align 8
  store ptr %cb, ptr %cb.addr, align 8
  store ptr %arg, ptr %arg.addr, align 8
  br label %do.body

do.body:                                          ; preds = %entry
  %0 = load ptr, ptr %env.addr, align 8
  %cmp = icmp ne ptr %0, null
  %lnot = xor i1 %cmp, true
  %lnot1 = xor i1 %lnot, true
  %lnot2 = xor i1 %lnot1, true
  br i1 %lnot2, label %if.then, label %if.end

if.then:                                          ; preds = %do.body
  br label %do.body3

do.body3:                                         ; preds = %if.then
  call void @_ZN4node6AssertERKNS_13AssertionInfoE(ptr noundef nonnull align 8 dereferenceable(24) @_ZZN4node6AtExitEPNS_11EnvironmentEPFvPvES2_E4args)
  call void @abort() #12
  unreachable

do.end:                                           ; No predecessors!
  br label %if.end

if.end:                                           ; preds = %do.end, %do.body
  br label %do.end4

do.end4:                                          ; preds = %if.end
  %1 = load ptr, ptr %env.addr, align 8
  %2 = load ptr, ptr %cb.addr, align 8
  %3 = load ptr, ptr %arg.addr, align 8
  call void @_ZN4node11Environment6AtExitEPFvPvES1_(ptr noundef nonnull align 8 dereferenceable(2872) %1, ptr noundef %2, ptr noundef %3)
  ret void
}