; Function Attrs: mustprogress nounwind uwtable
define dso_local void @_ZN4node6AtExitEPNS_11EnvironmentEPFvPvES2_(ptr noundef %env, ptr noundef %cb, ptr noundef %arg) local_unnamed_addr #3 {
entry:
  %cmp.not = icmp eq ptr %env, null
  br i1 %cmp.not, label %do.body3, label %do.end4

do.body3:                                         ; preds = %entry
  tail call void @_ZN4node6AssertERKNS_13AssertionInfoE(ptr noundef nonnull align 8 dereferenceable(24) @_ZZN4node6AtExitEPNS_11EnvironmentEPFvPvES2_E4args) #12
  tail call void @abort() #13
  unreachable

do.end4:                                          ; preds = %entry
  tail call void @_ZN4node11Environment6AtExitEPFvPvES1_(ptr noundef nonnull align 8 dereferenceable(2872) %env, ptr noundef %cb, ptr noundef %arg) #12
  ret void
}